Certificate:
    Data:
        Version: 3 (0x2)
        Serial Number: 2 (0x2)
        Signature Algorithm: md5WithRSAEncryption
        Issuer: C=US, ST=California, L=Berkeley, O=Franz Inc, CN=Franz Inc CA cert/Email=sa@franz.com
        Validity
            Not Before: Oct 16 21:40:00 2000 GMT
            Not After : Oct 16 21:40:00 2001 GMT
        Subject: C=US, ST=California, L=Berkeley, O=Franz Inc, OU=Samples, CN=sample.franz.com/Email=info@franz.com
        Subject Public Key Info:
            Public Key Algorithm: rsaEncryption
            RSA Public Key: (1024 bit)
                Modulus (1024 bit):
                    00:c0:14:51:1f:d5:c4:ab:53:1f:d0:f3:b2:7a:2c:
                    f6:98:d3:e5:4b:44:21:41:7c:d1:55:af:e7:ff:08:
                    c2:d4:93:fd:86:5c:87:5d:19:29:37:5b:be:f0:2c:
                    96:2b:bf:d6:4f:df:c4:23:d3:5d:02:6d:d1:fd:83:
                    7b:36:1b:bb:05:c9:9d:c0:1f:7d:e2:c8:05:33:86:
                    7e:47:cb:d1:83:b8:34:06:b6:e8:31:37:7c:23:64:
                    06:db:7c:71:98:89:19:d8:de:de:50:83:e6:e9:26:
                    e1:b4:bb:40:20:26:20:7f:eb:3f:7b:61:9e:06:89:
                    f7:15:59:1c:84:36:e9:0e:6b
                Exponent: 65537 (0x10001)
        X509v3 extensions:
            X509v3 Basic Constraints: 
                CA:FALSE
            Netscape Comment: 
                OpenSSL Generated Certificate
            X509v3 Subject Key Identifier: 
                7B:21:5D:77:D7:77:42:25:1E:8D:47:04:02:89:EA:3C:B6:69:8E:7B
            X509v3 Authority Key Identifier: 
                keyid:DC:24:F0:CB:42:F1:CB:B8:08:72:29:07:75:7F:DD:00:26:76:9E:67
                DirName:/C=US/ST=California/L=Berkeley/O=Franz Inc/CN=Franz Inc CA cert/Email=sa@franz.com
                serial:00

    Signature Algorithm: md5WithRSAEncryption
        71:e0:c2:16:0b:4a:85:b3:a3:e5:25:be:0c:6b:47:e2:78:af:
        57:11:33:be:7c:1f:06:96:c1:5c:4e:3d:29:25:a2:cb:23:af:
        4b:94:ad:1a:b5:56:a6:48:d8:3d:79:99:30:25:57:cd:63:e7:
        f9:da:32:85:20:9c:0b:e6:9d:bf:16:ce:02:d2:94:6f:93:d8:
        62:25:37:61:ea:ba:ca:6c:19:10:29:b6:22:7a:32:ce:f8:ea:
        8d:14:af:61:6f:f0:cf:af:32:9c:be:6b:e1:89:87:fb:dc:2b:
        ad:2d:6b:e9:4f:a5:5a:d9:24:43:31:e1:1b:53:fa:e2:f9:3a:
        c4:b3
-----BEGIN CERTIFICATE-----
MIIDnzCCAwigAwIBAgIBAjANBgkqhkiG9w0BAQQFADCBgjELMAkGA1UEBhMCVVMx
EzARBgNVBAgTCkNhbGlmb3JuaWExETAPBgNVBAcTCEJlcmtlbGV5MRIwEAYDVQQK
EwlGcmFueiBJbmMxGjAYBgNVBAMTEUZyYW56IEluYyBDQSBjZXJ0MRswGQYJKoZI
hvcNAQkBFgxzYUBmcmFuei5jb20wHhcNMDAxMDE2MjE0MDAwWhcNMDExMDE2MjE0
MDAwWjCBlTELMAkGA1UEBhMCVVMxEzARBgNVBAgTCkNhbGlmb3JuaWExETAPBgNV
BAcTCEJlcmtlbGV5MRIwEAYDVQQKEwlGcmFueiBJbmMxEDAOBgNVBAsTB1NhbXBs
ZXMxGTAXBgNVBAMTEHNhbXBsZS5mcmFuei5jb20xHTAbBgkqhkiG9w0BCQEWDmlu
Zm9AZnJhbnouY29tMIGfMA0GCSqGSIb3DQEBAQUAA4GNADCBiQKBgQDAFFEf1cSr
Ux/Q87J6LPaY0+VLRCFBfNFVr+f/CMLUk/2GXIddGSk3W77wLJYrv9ZP38Qj010C
bdH9g3s2G7sFyZ3AH33iyAUzhn5Hy9GDuDQGtugxN3wjZAbbfHGYiRnY3t5Qg+bp
JuG0u0AgJiB/6z97YZ4GifcVWRyENukOawIDAQABo4IBDjCCAQowCQYDVR0TBAIw
ADAsBglghkgBhvhCAQ0EHxYdT3BlblNTTCBHZW5lcmF0ZWQgQ2VydGlmaWNhdGUw
HQYDVR0OBBYEFHshXXfXd0IlHo1HBAKJ6jy2aY57MIGvBgNVHSMEgacwgaSAFNwk
8MtC8cu4CHIpB3V/3QAmdp5noYGIpIGFMIGCMQswCQYDVQQGEwJVUzETMBEGA1UE
CBMKQ2FsaWZvcm5pYTERMA8GA1UEBxMIQmVya2VsZXkxEjAQBgNVBAoTCUZyYW56
IEluYzEaMBgGA1UEAxMRRnJhbnogSW5jIENBIGNlcnQxGzAZBgkqhkiG9w0BCQEW
DHNhQGZyYW56LmNvbYIBADANBgkqhkiG9w0BAQQFAAOBgQBx4MIWC0qFs6PlJb4M
a0fieK9XETO+fB8GlsFcTj0pJaLLI69LlK0atVamSNg9eZkwJVfNY+f52jKFIJwL
5p2/Fs4C0pRvk9hiJTdh6rrKbBkQKbYiejLO+OqNFK9hb/DPrzKcvmvhiYf73Cut
LWvpT6Va2SRDMeEbU/ri+TrEsw==
-----END CERTIFICATE-----
-----BEGIN RSA PRIVATE KEY-----
MIICXAIBAAKBgQDAFFEf1cSrUx/Q87J6LPaY0+VLRCFBfNFVr+f/CMLUk/2GXIdd
GSk3W77wLJYrv9ZP38Qj010CbdH9g3s2G7sFyZ3AH33iyAUzhn5Hy9GDuDQGtugx
N3wjZAbbfHGYiRnY3t5Qg+bpJuG0u0AgJiB/6z97YZ4GifcVWRyENukOawIDAQAB
AoGAGIB++LikJdassFLl6X/i1Qvyq+887sWlTnDp/zZ24/cc2A7llZKoF0+0w55s
aZhHFllNA+TqcGzh5JzpErXm3VUE5BBYRp2o7z9BvGsnwbZcEB+JXuQxiMWb5eZ+
TvledVJeCMZeMchY6a6ROjiPuQ1OVW5Ep1VmD5Q0fm8qsQECQQD+p+6HHhDIvEM9
LJA1UiI+rTJH3ziOB7jTfXU+CC9M3Cvxk+KQKPZfeScQEK48BVG0t8d0mI6MPnfa
htl2qYkRAkEAwRfWVZugVIzkRtbfH80iVB0L7t3nV91b5GumWrM59v3G3n1JzkrO
E8InCiWfLiZmZ0yUbZHp15WtGoJ6YOr/uwJAbdYq2JaMMLia28jbzlPFt3jmhf9u
mjwUaQvkxMOs+x6/yWu6vekdEuLjiVdYf0TgD+1wlwax/SV4doXRSBApsQJAW6a3
2myC/n7df25P++U/TRN4bYmwXDk6e8JI9LYrZjvwn/xyAtPo2uIF68ANvTcG1jM4
JIXkq6pkvrd95PDGLwJBAJZNLyK4IQ4uTAegAAjGd5eQr1rpPT5k3kw6lBOyUJgw
u0h5fqY84KtggD544uScxEeWZZe/VlYsYVAS64HHB+s=
-----END RSA PRIVATE KEY-----
